; Function Attrs: mustprogress nofree norecurse nosync nounwind willreturn memory(argmem: readwrite) uwtable
define void @u_setAtomicIncDecFunctions_77(ptr noundef readnone captures(none) %0, ptr noundef readnone captures(none) %1, ptr noundef readnone captures(none) %2, ptr noundef captures(none) %3) local_unnamed_addr #7 {
  %5 = load i32, ptr %3, align 4, !tbaa !26
  %6 = icmp sgt i32 %5, 0
  br i1 %6, label %8, label %7

7:                                                ; preds = %4
  store i32 16, ptr %3, align 4, !tbaa !26
  br label %8

8:                                                ; preds = %7, %4
  ret void
}